target datalayout = "e-m:e-p270:32:32-p271:32:32-p272:64:64-i64:64-i128:128-f80:128-n8:16:32:64-S128"
target triple = "x86_64-pc-linux-gnu"

%struct._xmlEntity = type { ptr, i32, ptr, ptr, ptr, ptr, ptr, ptr, ptr, ptr, ptr, i32, i32, ptr, ptr, ptr, ptr, i32, i32 }

@xmlMalloc = external global ptr, align 8

; Function Attrs: nounwind uwtable
define hidden ptr @create_notation(ptr noundef %0, ptr noundef %1, ptr noundef %2) #0 {
  %4 = alloca ptr, align 8
  %5 = alloca ptr, align 8
  %6 = alloca ptr, align 8
  %7 = alloca ptr, align 8
  store ptr %0, ptr %4, align 8
  store ptr %1, ptr %5, align 8
  store ptr %2, ptr %6, align 8
  %8 = load ptr, ptr @xmlMalloc, align 8
  %9 = call ptr %8(i64 noundef 136)
  store ptr %9, ptr %7, align 8
  %10 = load ptr, ptr %7, align 8
  call void @llvm.memset.p0.i64(ptr align 8 %10, i8 0, i64 136, i1 false)
  %11 = load ptr, ptr %7, align 8
  %12 = getelementptr inbounds %struct._xmlEntity, ptr %11, i32 0, i32 1
  store i32 12, ptr %12, align 8
  %13 = load ptr, ptr %4, align 8
  %14 = call ptr @xmlStrdup(ptr noundef %13)
  %15 = load ptr, ptr %7, align 8
  %16 = getelementptr inbounds %struct._xmlEntity, ptr %15, i32 0, i32 2
  store ptr %14, ptr %16, align 8
  %17 = load ptr, ptr %5, align 8
  %18 = call ptr @xmlStrdup(ptr noundef %17)
  %19 = load ptr, ptr %7, align 8
  %20 = getelementptr inbounds %struct._xmlEntity, ptr %19, i32 0, i32 13
  store ptr %18, ptr %20, align 8
  %21 = load ptr, ptr %6, align 8
  %22 = call ptr @xmlStrdup(ptr noundef %21)
  %23 = load ptr, ptr %7, align 8
  %24 = getelementptr inbounds %struct._xmlEntity, ptr %23, i32 0, i32 14
  store ptr %22, ptr %24, align 8
  %25 = load ptr, ptr %7, align 8
  %26 = getelementptr inbounds %struct._xmlEntity, ptr %25, i32 0, i32 11
  store i32 0, ptr %26, align 8
  %27 = load ptr, ptr %7, align 8
  %28 = getelementptr inbounds %struct._xmlEntity, ptr %27, i32 0, i32 10
  store ptr null, ptr %28, align 8
  %29 = load ptr, ptr %7, align 8
  %30 = getelementptr inbounds %struct._xmlEntity, ptr %29, i32 0, i32 16
  store ptr null, ptr %30, align 8
  %31 = load ptr, ptr %7, align 8
  %32 = getelementptr inbounds %struct._xmlEntity, ptr %31, i32 0, i32 9
  store ptr null, ptr %32, align 8
  %33 = load ptr, ptr %7, align 8
  %34 = getelementptr inbounds %struct._xmlEntity, ptr %33, i32 0, i32 3
  store ptr null, ptr %34, align 8
  %35 = load ptr, ptr %7, align 8
  %36 = getelementptr inbounds %struct._xmlEntity, ptr %35, i32 0, i32 5
  store ptr null, ptr %36, align 8
  %37 = load ptr, ptr %7, align 8
  %38 = getelementptr inbounds %struct._xmlEntity, ptr %37, i32 0, i32 8
  store ptr null, ptr %38, align 8
  %39 = load ptr, ptr %7, align 8
  %40 = getelementptr inbounds %struct._xmlEntity, ptr %39, i32 0, i32 0
  store ptr null, ptr %40, align 8
  %41 = load ptr, ptr %7, align 8
  %42 = getelementptr inbounds %struct._xmlEntity, ptr %41, i32 0, i32 4
  store ptr null, ptr %42, align 8
  %43 = load ptr, ptr %7, align 8
  %44 = getelementptr inbounds %struct._xmlEntity, ptr %43, i32 0, i32 7
  store ptr null, ptr %44, align 8
  %45 = load ptr, ptr %7, align 8
  ret ptr %45
}