; Function Attrs: nounwind uwtable
define hidden noundef ptr @create_notation(ptr noundef %0, ptr noundef %1, ptr noundef %2) local_unnamed_addr #0 {
  %4 = load ptr, ptr @xmlMalloc, align 8
  %5 = tail call ptr %4(i64 noundef 136) #8
  tail call void @llvm.memset.p0.i64(ptr noundef nonnull align 8 dereferenceable(136) %5, i8 0, i64 136, i1 false)
  %6 = getelementptr inbounds i8, ptr %5, i64 8
  store i32 12, ptr %6, align 8
  %7 = tail call ptr @xmlStrdup(ptr noundef %0) #8
  %8 = getelementptr inbounds i8, ptr %5, i64 16
  store ptr %7, ptr %8, align 8
  %9 = tail call ptr @xmlStrdup(ptr noundef %1) #8
  %10 = getelementptr inbounds i8, ptr %5, i64 96
  store ptr %9, ptr %10, align 8
  %11 = tail call ptr @xmlStrdup(ptr noundef %2) #8
  %12 = getelementptr inbounds i8, ptr %5, i64 104
  store ptr %11, ptr %12, align 8
  %13 = getelementptr inbounds i8, ptr %5, i64 120
  store ptr null, ptr %13, align 8
  %14 = getelementptr inbounds i8, ptr %5, i64 24
  store ptr null, ptr %5, align 8
  %15 = getelementptr inbounds i8, ptr %5, i64 56
  tail call void @llvm.memset.p0.i64(ptr noundef nonnull align 8 dereferenceable(24) %14, i8 0, i64 24, i1 false)
  tail call void @llvm.memset.p0.i64(ptr noundef nonnull align 8 dereferenceable(36) %15, i8 0, i64 36, i1 false)
  ret ptr %5
}